; Function Attrs: nounwind sspstrong uwtable
define internal range(i64 5, 4) i64 @random_s_rand(i32 noundef %0, ptr noundef readonly captures(none) %1, i64 %2) #0 {
  %4 = load ptr, ptr @default_rand_key, align 8, !tbaa !7
  %5 = tail call ptr @rb_ractor_local_storage_ptr(ptr noundef %4) #23
  %6 = icmp eq ptr %5, null
  br i1 %6, label %7, label %default_rand.exit

7:                                                ; preds = %3
  %8 = tail call noalias nonnull dereferenceable(2520) ptr @ruby_xcalloc(i64 noundef 1, i64 noundef 2520) #24
  %9 = load ptr, ptr @default_rand_key, align 8, !tbaa !7
  tail call void @rb_ractor_local_storage_ptr_set(ptr noundef %9, ptr noundef nonnull %8) #23
  br label %default_rand.exit

default_rand.exit:                                ; preds = %3, %7
  %.0.i = phi ptr [ %8, %7 ], [ %5, %3 ]
  %10 = getelementptr inbounds nuw i8, ptr %.0.i, i64 2504
  %11 = load ptr, ptr %10, align 8, !tbaa !12
  %.not.i.i = icmp eq ptr %11, null
  br i1 %.not.i.i, label %12, label %rand_start.exit

12:                                               ; preds = %default_rand.exit
  %13 = tail call i64 @random_seed(i64 poison)
  %14 = tail call fastcc i64 @rand_init(ptr noundef nonnull @random_mt_if, ptr noundef nonnull %.0.i, i64 noundef %13)
  store i64 %13, ptr %.0.i, align 8, !tbaa !19
  br label %rand_start.exit

rand_start.exit:                                  ; preds = %default_rand.exit, %12
  %15 = tail call fastcc i64 @rand_random(i32 noundef %0, ptr noundef %1, i64 noundef 4, ptr noundef nonnull %.0.i)
  switch i64 %15, label %check_random_number.exit [
    i64 0, label %16
    i64 4, label %21
  ]

16:                                               ; preds = %rand_start.exit
  %17 = load i64, ptr %1, align 8, !tbaa !43
  %18 = and i64 %17, 1
  %.not.i.i4 = icmp eq i64 %18, 0
  br i1 %.not.i.i4, label %19, label %check_random_number.exit

19:                                               ; preds = %16
  %20 = tail call i64 @rb_num2long(i64 noundef %17) #23
  br label %check_random_number.exit

21:                                               ; preds = %rand_start.exit
  %22 = load i64, ptr %1, align 8, !tbaa !43
  tail call fastcc void @invalid_argument(i64 noundef %22) #27
  unreachable

check_random_number.exit:                         ; preds = %rand_start.exit, %16, %19
  ret i64 %15
}